Certificate:
    Data:
        Version: 3 (0x2)
        Serial Number:
            d6:ac:8e:2d:8d:f6:63:2e:eb:55:68:39:20:24:7a:30
        Signature Algorithm: sha256WithRSAEncryption
        Issuer: CN=Easy-RSA CA
        Validity
            Not Before: Mar 12 13:16:34 2023 GMT
            Not After : Mar  9 13:16:34 2033 GMT
        Subject: CN=khodir
        Subject Public Key Info:
            Public Key Algorithm: rsaEncryption
                Public-Key: (2048 bit)
                Modulus:
                    00:c4:0d:00:36:7d:5c:3c:87:a6:36:3c:96:52:13:
                    8e:e6:51:a3:82:5e:80:11:2e:c9:ce:60:0a:c3:c1:
                    e5:a0:74:40:e1:53:5d:8b:43:3d:28:1b:b2:ec:11:
                    81:e3:0e:05:4c:25:b8:86:a0:9d:0f:f6:f0:dc:4c:
                    db:de:8c:6b:2b:a3:76:dc:41:e9:a3:c6:ca:73:62:
                    87:07:c0:14:7a:d7:c6:be:ea:29:a7:68:9b:c3:0e:
                    cf:1c:8b:70:dc:2c:10:b2:55:91:e6:f2:bf:21:1d:
                    da:b1:23:e4:34:98:31:1b:fb:51:29:ea:7d:89:c1:
                    8e:b6:c0:80:56:b6:65:0c:31:d2:10:57:9c:b5:97:
                    d9:4d:91:e6:42:fc:59:eb:44:63:9f:82:5d:8b:af:
                    3d:b6:05:47:44:82:b3:b8:b5:ec:34:3f:8d:23:53:
                    b4:02:07:94:9f:da:7f:f0:9b:8a:78:49:5f:8b:8c:
                    20:d8:1e:7f:05:75:90:ab:1f:09:fe:06:6f:2f:ec:
                    41:15:3a:c8:22:0c:20:96:49:73:94:f9:07:75:2f:
                    78:9d:59:94:74:55:9b:d2:49:c0:db:3a:61:30:6f:
                    38:f9:ed:85:5e:d1:2e:06:8d:93:41:78:b8:ca:e7:
                    e7:ec:37:e1:0a:64:b9:a6:90:9d:7f:95:76:9c:d8:
                    25:0f
                Exponent: 65537 (0x10001)
        X509v3 extensions:
            X509v3 Basic Constraints: 
                CA:FALSE
            X509v3 Subject Key Identifier: 
                21:15:AF:5A:9C:CB:FF:B9:48:CA:CF:73:68:C7:76:62:CC:F2:B3:BA
            X509v3 Authority Key Identifier: 
                keyid:7D:38:BD:B6:96:8E:23:4A:5D:D4:AB:45:D4:EB:31:0E:EC:6F:7D:ED
                DirName:/CN=Easy-RSA CA
                serial:5C:B4:28:EF:7B:2F:8B:98:98:3C:DA:92:EA:ED:D0:3F:61:A6:17:86
            X509v3 Extended Key Usage: 
                TLS Web Client Authentication
            X509v3 Key Usage: 
                Digital Signature
    Signature Algorithm: sha256WithRSAEncryption
    Signature Value:
        c5:a0:f5:ca:e2:37:dd:26:0c:6c:dd:3e:40:0a:c0:dd:46:56:
        78:99:17:25:b0:42:4f:0e:8b:c7:6f:45:7d:93:c0:6c:11:02:
        c3:b9:37:2f:e8:1d:77:7f:90:86:76:5a:6f:33:b9:e2:a3:dc:
        ef:3f:49:08:3b:1d:d1:3e:01:cd:dc:45:f3:f7:6c:6a:ad:69:
        69:ca:69:a5:ce:ed:09:6c:59:c5:34:af:5d:db:f1:d3:0c:97:
        73:dc:8f:b1:01:51:96:0d:a1:27:38:6a:76:89:3d:09:04:1c:
        c0:be:4c:63:73:7c:08:55:80:a8:88:70:d1:de:7a:35:c9:2f:
        29:d5:9d:50:11:47:1e:a7:c7:60:1c:56:be:f0:9c:a3:45:88:
        7b:76:af:d7:f8:65:19:5d:2e:ab:4f:14:01:ba:71:95:2c:93:
        7c:b0:67:cf:7d:ce:b3:d2:0f:f1:f5:4a:66:62:7c:96:bc:6e:
        cd:38:b7:3e:fd:8a:50:cd:1e:28:48:a2:4a:8b:cf:c7:0f:25:
        6c:93:e6:45:8e:21:e4:44:fc:3c:d5:12:cb:25:54:b3:85:30:
        cc:c8:11:59:66:ce:f9:51:10:e7:f5:52:05:37:0a:39:27:ef:
        35:dd:97:4d:ba:95:c6:86:d5:41:e1:99:c2:08:32:15:58:c3:
        fe:be:94:f2
-----BEGIN CERTIFICATE-----
MIIDVTCCAj2gAwIBAgIRANasji2N9mMu61VoOSAkejAwDQYJKoZIhvcNAQELBQAw
FjEUMBIGA1UEAwwLRWFzeS1SU0EgQ0EwHhcNMjMwMzEyMTMxNjM0WhcNMzMwMzA5
MTMxNjM0WjARMQ8wDQYDVQQDDAZraG9kaXIwggEiMA0GCSqGSIb3DQEBAQUAA4IB
DwAwggEKAoIBAQDEDQA2fVw8h6Y2PJZSE47mUaOCXoARLsnOYArDweWgdEDhU12L
Qz0oG7LsEYHjDgVMJbiGoJ0P9vDcTNvejGsro3bcQemjxspzYocHwBR618a+6imn
aJvDDs8ci3DcLBCyVZHm8r8hHdqxI+Q0mDEb+1Ep6n2JwY62wIBWtmUMMdIQV5y1
l9lNkeZC/FnrRGOfgl2Lrz22BUdEgrO4tew0P40jU7QCB5Sf2n/wm4p4SV+LjCDY
Hn8FdZCrHwn+Bm8v7EEVOsgiDCCWSXOU+Qd1L3idWZR0VZvSScDbOmEwbzj57YVe
0S4GjZNBeLjK5+fsN+EKZLmmkJ1/lXac2CUPAgMBAAGjgaIwgZ8wCQYDVR0TBAIw
ADAdBgNVHQ4EFgQUIRWvWpzL/7lIys9zaMd2Yszys7owUQYDVR0jBEowSIAUfTi9
tpaOI0pd1KtF1OsxDuxvfe2hGqQYMBYxFDASBgNVBAMMC0Vhc3ktUlNBIENBghRc
tCjvey+LmJg82pLq7dA/YaYXhjATBgNVHSUEDDAKBggrBgEFBQcDAjALBgNVHQ8E
BAMCB4AwDQYJKoZIhvcNAQELBQADggEBAMWg9criN90mDGzdPkAKwN1GVniZFyWw
Qk8Oi8dvRX2TwGwRAsO5Ny/oHXd/kIZ2Wm8zueKj3O8/SQg7HdE+Ac3cRfP3bGqt
aWnKaaXO7QlsWcU0r13b8dMMl3Pcj7EBUZYNoSc4anaJPQkEHMC+TGNzfAhVgKiI
cNHeejXJLynVnVARRx6nx2AcVr7wnKNFiHt2r9f4ZRldLqtPFAG6cZUsk3ywZ899
zrPSD/H1SmZifJa8bs04tz79ilDNHihIokqLz8cPJWyT5kWOIeRE/DzVEsslVLOF
MMzIEVlmzvlREOf1UgU3Cjkn7zXdl026lcaG1UHhmcIIMhVYw/6+lPI=
-----END CERTIFICATE-----
